target datalayout = "e-m:e-p270:32:32-p271:32:32-p272:64:64-i64:64-i128:128-f80:128-n8:16:32:64-S128"
target triple = "x86_64-pc-linux-gnu"

%"class.std::__cxx11::basic_string" = type { %"struct.std::__cxx11::basic_string<char>::_Alloc_hider", i64, %union.anon }
%"struct.std::__cxx11::basic_string<char>::_Alloc_hider" = type { ptr }
%union.anon = type { i64, [8 x i8] }
%class.ArgOption = type { %"class.std::__cxx11::basic_string", %"class.std::__cxx11::basic_string", %"class.std::__cxx11::basic_string", %"class.std::__cxx11::basic_string", i32, i32, %"class.std::vector", ptr, i32, %"class.std::vector.3" }
%"class.std::vector" = type { %"struct.std::_Vector_base" }
%"struct.std::_Vector_base" = type { %"struct.std::_Vector_base<void *, std::allocator<void *>>::_Vector_impl" }
%"struct.std::_Vector_base<void *, std::allocator<void *>>::_Vector_impl" = type { %"struct.std::_Vector_base<void *, std::allocator<void *>>::_Vector_impl_data" }
%"struct.std::_Vector_base<void *, std::allocator<void *>>::_Vector_impl_data" = type { ptr, ptr, ptr }
%"class.std::vector.3" = type { %"struct.std::_Vector_base.4" }
%"struct.std::_Vector_base.4" = type { %"struct.std::_Vector_base<std::__cxx11::basic_string<char>, std::allocator<std::__cxx11::basic_string<char>>>::_Vector_impl" }
%"struct.std::_Vector_base<std::__cxx11::basic_string<char>, std::allocator<std::__cxx11::basic_string<char>>>::_Vector_impl" = type { %"struct.std::_Vector_base<std::__cxx11::basic_string<char>, std::allocator<std::__cxx11::basic_string<char>>>::_Vector_impl_data" }
%"struct.std::_Vector_base<std::__cxx11::basic_string<char>, std::allocator<std::__cxx11::basic_string<char>>>::_Vector_impl_data" = type { ptr, ptr, ptr }
%class.ArgParse = type { i32, ptr, %"class.std::__cxx11::basic_string", ptr, %"class.std::__cxx11::basic_string", %"class.std::vector.8" }
%"class.std::vector.8" = type { %"struct.std::_Vector_base.9" }
%"struct.std::_Vector_base.9" = type { %"struct.std::_Vector_base<ArgOption *, std::allocator<ArgOption *>>::_Vector_impl" }
%"struct.std::_Vector_base<ArgOption *, std::allocator<ArgOption *>>::_Vector_impl" = type { %"struct.std::_Vector_base<ArgOption *, std::allocator<ArgOption *>>::_Vector_impl_data" }
%"struct.std::_Vector_base<ArgOption *, std::allocator<ArgOption *>>::_Vector_impl_data" = type { ptr, ptr, ptr }
%"class.__gnu_cxx::__normal_iterator.13" = type { ptr }
%"class.__gnu_cxx::__normal_iterator.14" = type { ptr }

; Function Attrs: mustprogress nounwind uwtable
define linkonce_odr hidden void @_ZN9__gnu_cxx17__normal_iteratorIPKP9ArgOptionSt6vectorIS2_SaIS2_EEEC2ERKS4_(ptr noundef nonnull align 8 dereferenceable(8) %0, ptr noundef nonnull align 8 dereferenceable(8) %1) unnamed_addr #6 comdat align 2 {
  %3 = alloca ptr, align 8
  %4 = alloca ptr, align 8
  store ptr %0, ptr %3, align 8, !tbaa !92
  store ptr %1, ptr %4, align 8, !tbaa !197
  %5 = load ptr, ptr %3, align 8
  %6 = getelementptr inbounds nuw %"class.__gnu_cxx::__normal_iterator.13", ptr %5, i32 0, i32 0
  %7 = load ptr, ptr %4, align 8, !tbaa !197
  %8 = load ptr, ptr %7, align 8, !tbaa !90
  store ptr %8, ptr %6, align 8, !tbaa !96
  ret void
}

; Function Attrs: noinline noreturn nounwind uwtable
define linkonce_odr hidden void @__clang_call_terminate(ptr noundef %0) #15 comdat {
  %2 = call ptr @__cxa_begin_catch(ptr %0) #3
  call void @_ZSt9terminatev() #21
  unreachable
}

; Function Attrs: mustprogress nounwind uwtable
define available_externally noundef ptr @_ZNKSt7__cxx1112basic_stringIcSt11char_traitsIcESaIcEE7_M_dataEv(ptr noundef nonnull align 8 dereferenceable(32) %0) #6 align 2 {
  %2 = alloca ptr, align 8
  store ptr %0, ptr %2, align 8, !tbaa !33
  %3 = load ptr, ptr %2, align 8
  %4 = getelementptr inbounds nuw %"class.std::__cxx11::basic_string", ptr %3, i32 0, i32 0
  %5 = getelementptr inbounds nuw %"struct.std::__cxx11::basic_string<char>::_Alloc_hider", ptr %4, i32 0, i32 0
  %6 = load ptr, ptr %5, align 8, !tbaa !137
  ret ptr %6
}

; Function Attrs: mustprogress nounwind uwtable
define linkonce_odr hidden noundef nonnull align 8 dereferenceable(8) ptr @_ZNK9__gnu_cxx17__normal_iteratorIPKP9ArgOptionSt6vectorIS2_SaIS2_EEE4baseEv(ptr noundef nonnull align 8 dereferenceable(8) %0) #6 comdat align 2 {
  %2 = alloca ptr, align 8
  store ptr %0, ptr %2, align 8, !tbaa !92
  %3 = load ptr, ptr %2, align 8
  %4 = getelementptr inbounds nuw %"class.__gnu_cxx::__normal_iterator.13", ptr %3, i32 0, i32 0
  ret ptr %4
}

; Function Attrs: mustprogress nounwind uwtable
define linkonce_odr hidden noundef nonnull align 8 dereferenceable(8) ptr @_ZNK9__gnu_cxx17__normal_iteratorIPP9ArgOptionSt6vectorIS2_SaIS2_EEE4baseEv(ptr noundef nonnull align 8 dereferenceable(8) %0) #6 comdat align 2 {
  %2 = alloca ptr, align 8
  store ptr %0, ptr %2, align 8, !tbaa !94
  %3 = load ptr, ptr %2, align 8
  %4 = getelementptr inbounds nuw %"class.__gnu_cxx::__normal_iterator.14", ptr %3, i32 0, i32 0
  ret ptr %4
}

; Function Attrs: mustprogress nounwind uwtable
define linkonce_odr hidden void @_ZN9__gnu_cxx17__normal_iteratorIPP9ArgOptionSt6vectorIS2_SaIS2_EEEC2ERKS3_(ptr noundef nonnull align 8 dereferenceable(8) %0, ptr noundef nonnull align 8 dereferenceable(8) %1) unnamed_addr #6 comdat align 2 {
  %3 = alloca ptr, align 8
  %4 = alloca ptr, align 8
  store ptr %0, ptr %3, align 8, !tbaa !94
  store ptr %1, ptr %4, align 8, !tbaa !197
  %5 = load ptr, ptr %3, align 8
  %6 = getelementptr inbounds nuw %"class.__gnu_cxx::__normal_iterator.14", ptr %5, i32 0, i32 0
  %7 = load ptr, ptr %4, align 8, !tbaa !197
  %8 = load ptr, ptr %7, align 8, !tbaa !90
  store ptr %8, ptr %6, align 8, !tbaa !199
  ret void
}

; Function Attrs: mustprogress nounwind uwtable
define linkonce_odr hidden ptr @_ZN9__gnu_cxx17__normal_iteratorIPKP9ArgOptionSt6vectorIS2_SaIS2_EEEppEi(ptr noundef nonnull align 8 dereferenceable(8) %0, i32 noundef %1) #6 comdat align 2 {
  %3 = alloca %"class.__gnu_cxx::__normal_iterator.13", align 8
  %4 = alloca ptr, align 8
  %5 = alloca i32, align 4
  %6 = alloca ptr, align 8
  store ptr %0, ptr %4, align 8, !tbaa !92
  store i32 %1, ptr %5, align 4, !tbaa !56
  %7 = load ptr, ptr %4, align 8
  call void @llvm.lifetime.start.p0(i64 8, ptr %6) #3
  %8 = getelementptr inbounds nuw %"class.__gnu_cxx::__normal_iterator.13", ptr %7, i32 0, i32 0
  %9 = load ptr, ptr %8, align 8, !tbaa !96
  %10 = getelementptr inbounds nuw ptr, ptr %9, i32 1
  store ptr %10, ptr %8, align 8, !tbaa !96
  store ptr %9, ptr %6, align 8, !tbaa !90
  call void @_ZN9__gnu_cxx17__normal_iteratorIPKP9ArgOptionSt6vectorIS2_SaIS2_EEEC2ERKS4_(ptr noundef nonnull align 8 dereferenceable(8) %3, ptr noundef nonnull align 8 dereferenceable(8) %6) #3
  call void @llvm.lifetime.end.p0(i64 8, ptr %6) #3
  %11 = getelementptr inbounds nuw %"class.__gnu_cxx::__normal_iterator.13", ptr %3, i32 0, i32 0
  %12 = load ptr, ptr %11, align 8
  ret ptr %12
}

; Function Attrs: mustprogress nounwind uwtable
define available_externally noundef ptr @_ZNKSt7__cxx1112basic_stringIcSt11char_traitsIcESaIcEE5c_strEv(ptr noundef nonnull align 8 dereferenceable(32) %0) #6 align 2 personality ptr @__gxx_personality_v0 {
  %2 = alloca ptr, align 8
  store ptr %0, ptr %2, align 8, !tbaa !33
  %3 = load ptr, ptr %2, align 8
  %4 = invoke noundef ptr @_ZNKSt7__cxx1112basic_stringIcSt11char_traitsIcESaIcEE7_M_dataEv(ptr noundef nonnull align 8 dereferenceable(32) %3)
          to label %5 unwind label %6

5:                                                ; preds = %1
  ret ptr %4

6:                                                ; preds = %1
  %7 = landingpad { ptr, i32 }
          catch ptr null
  %8 = extractvalue { ptr, i32 } %7, 0
  call void @__clang_call_terminate(ptr %8) #21
  unreachable
}

; Function Attrs: mustprogress nounwind uwtable
define linkonce_odr hidden noundef nonnull align 8 dereferenceable(32) ptr @_ZNK9ArgOption4nameB5cxx11Ev(ptr noundef nonnull align 8 dereferenceable(200) %0) #6 comdat align 2 {
  %2 = alloca ptr, align 8
  store ptr %0, ptr %2, align 8, !tbaa !4
  %3 = load ptr, ptr %2, align 8
  %4 = getelementptr inbounds nuw %class.ArgOption, ptr %3, i32 0, i32 1
  ret ptr %4
}

; Function Attrs: mustprogress nounwind uwtable
define linkonce_odr hidden noundef nonnull align 8 dereferenceable(8) ptr @_ZNK9__gnu_cxx17__normal_iteratorIPKP9ArgOptionSt6vectorIS2_SaIS2_EEEdeEv(ptr noundef nonnull align 8 dereferenceable(8) %0) #6 comdat align 2 {
  %2 = alloca ptr, align 8
  store ptr %0, ptr %2, align 8, !tbaa !92
  %3 = load ptr, ptr %2, align 8
  %4 = getelementptr inbounds nuw %"class.__gnu_cxx::__normal_iterator.13", ptr %3, i32 0, i32 0
  %5 = load ptr, ptr %4, align 8, !tbaa !96
  ret ptr %5
}

; Function Attrs: inlinehint mustprogress nounwind uwtable
define linkonce_odr hidden noundef zeroext i1 @_ZN9__gnu_cxxneIPKP9ArgOptionPS2_St6vectorIS2_SaIS2_EEEEbRKNS_17__normal_iteratorIT_T1_EERKNS9_IT0_SB_EE(ptr noundef nonnull align 8 dereferenceable(8) %0, ptr noundef nonnull align 8 dereferenceable(8) %1) #7 comdat {
  %3 = alloca ptr, align 8
  %4 = alloca ptr, align 8
  store ptr %0, ptr %3, align 8, !tbaa !92
  store ptr %1, ptr %4, align 8, !tbaa !94
  %5 = load ptr, ptr %3, align 8, !tbaa !92
  %6 = call noundef nonnull align 8 dereferenceable(8) ptr @_ZNK9__gnu_cxx17__normal_iteratorIPKP9ArgOptionSt6vectorIS2_SaIS2_EEE4baseEv(ptr noundef nonnull align 8 dereferenceable(8) %5) #3
  %7 = load ptr, ptr %6, align 8, !tbaa !90
  %8 = load ptr, ptr %4, align 8, !tbaa !94
  %9 = call noundef nonnull align 8 dereferenceable(8) ptr @_ZNK9__gnu_cxx17__normal_iteratorIPP9ArgOptionSt6vectorIS2_SaIS2_EEE4baseEv(ptr noundef nonnull align 8 dereferenceable(8) %8) #3
  %10 = load ptr, ptr %9, align 8, !tbaa !90
  %11 = icmp ne ptr %7, %10
  ret i1 %11
}

; Function Attrs: mustprogress nounwind uwtable
define linkonce_odr hidden ptr @_ZNSt6vectorIP9ArgOptionSaIS1_EE3endEv(ptr noundef nonnull align 8 dereferenceable(24) %0) #6 comdat align 2 {
  %2 = alloca %"class.__gnu_cxx::__normal_iterator.14", align 8
  %3 = alloca ptr, align 8
  store ptr %0, ptr %3, align 8, !tbaa !80
  %4 = load ptr, ptr %3, align 8
  %5 = getelementptr inbounds nuw %"struct.std::_Vector_base.9", ptr %4, i32 0, i32 0
  %6 = getelementptr inbounds nuw %"struct.std::_Vector_base<ArgOption *, std::allocator<ArgOption *>>::_Vector_impl_data", ptr %5, i32 0, i32 1
  call void @_ZN9__gnu_cxx17__normal_iteratorIPP9ArgOptionSt6vectorIS2_SaIS2_EEEC2ERKS3_(ptr noundef nonnull align 8 dereferenceable(8) %2, ptr noundef nonnull align 8 dereferenceable(8) %6) #3
  %7 = getelementptr inbounds nuw %"class.__gnu_cxx::__normal_iterator.14", ptr %2, i32 0, i32 0
  %8 = load ptr, ptr %7, align 8
  ret ptr %8
}

; Function Attrs: mustprogress nounwind uwtable
define linkonce_odr hidden void @_ZN9__gnu_cxx17__normal_iteratorIPKP9ArgOptionSt6vectorIS2_SaIS2_EEEC2IPS2_vEERKNS0_IT_S7_EE(ptr noundef nonnull align 8 dereferenceable(8) %0, ptr noundef nonnull align 8 dereferenceable(8) %1) unnamed_addr #6 comdat align 2 {
  %3 = alloca ptr, align 8
  %4 = alloca ptr, align 8
  store ptr %0, ptr %3, align 8, !tbaa !92
  store ptr %1, ptr %4, align 8, !tbaa !94
  %5 = load ptr, ptr %3, align 8
  %6 = getelementptr inbounds nuw %"class.__gnu_cxx::__normal_iterator.13", ptr %5, i32 0, i32 0
  %7 = load ptr, ptr %4, align 8, !tbaa !94
  %8 = call noundef nonnull align 8 dereferenceable(8) ptr @_ZNK9__gnu_cxx17__normal_iteratorIPP9ArgOptionSt6vectorIS2_SaIS2_EEE4baseEv(ptr noundef nonnull align 8 dereferenceable(8) %7) #3
  %9 = load ptr, ptr %8, align 8, !tbaa !90
  store ptr %9, ptr %6, align 8, !tbaa !96
  ret void
}

; Function Attrs: mustprogress nounwind uwtable
define linkonce_odr hidden ptr @_ZNSt6vectorIP9ArgOptionSaIS1_EE5beginEv(ptr noundef nonnull align 8 dereferenceable(24) %0) #6 comdat align 2 {
  %2 = alloca %"class.__gnu_cxx::__normal_iterator.14", align 8
  %3 = alloca ptr, align 8
  store ptr %0, ptr %3, align 8, !tbaa !80
  %4 = load ptr, ptr %3, align 8
  %5 = getelementptr inbounds nuw %"struct.std::_Vector_base.9", ptr %4, i32 0, i32 0
  %6 = getelementptr inbounds nuw %"struct.std::_Vector_base<ArgOption *, std::allocator<ArgOption *>>::_Vector_impl_data", ptr %5, i32 0, i32 0
  call void @_ZN9__gnu_cxx17__normal_iteratorIPP9ArgOptionSt6vectorIS2_SaIS2_EEEC2ERKS3_(ptr noundef nonnull align 8 dereferenceable(8) %2, ptr noundef nonnull align 8 dereferenceable(8) %6) #3
  %7 = getelementptr inbounds nuw %"class.__gnu_cxx::__normal_iterator.14", ptr %2, i32 0, i32 0
  %8 = load ptr, ptr %7, align 8
  ret ptr %8
}

; Function Attrs: mustprogress nounwind uwtable
define linkonce_odr hidden noundef i32 @_ZNK9ArgOption12parsed_countEv(ptr noundef nonnull align 8 dereferenceable(200) %0) #6 comdat align 2 {
  %2 = alloca ptr, align 8
  store ptr %0, ptr %2, align 8, !tbaa !4
  %3 = load ptr, ptr %2, align 8
  %4 = getelementptr inbounds nuw %class.ArgOption, ptr %3, i32 0, i32 8
  %5 = load i32, ptr %4, align 8, !tbaa !30
  ret i32 %5
}

; Function Attrs: mustprogress uwtable
define hidden noundef ptr @_ZN8ArgParse11find_optionEPKc(ptr noundef nonnull align 8 dereferenceable(112) %0, ptr noundef %1) #4 align 2 {
  %3 = alloca ptr, align 8
  %4 = alloca ptr, align 8
  %5 = alloca ptr, align 8
  %6 = alloca %"class.__gnu_cxx::__normal_iterator.13", align 8
  %7 = alloca %"class.__gnu_cxx::__normal_iterator.14", align 8
  %8 = alloca %"class.__gnu_cxx::__normal_iterator.14", align 8
  %9 = alloca i32, align 4
  %10 = alloca ptr, align 8
  %11 = alloca %"class.__gnu_cxx::__normal_iterator.13", align 8
  store ptr %0, ptr %4, align 8, !tbaa !69
  store ptr %1, ptr %5, align 8, !tbaa !9
  %12 = load ptr, ptr %4, align 8
  call void @llvm.lifetime.start.p0(i64 8, ptr %6) #3
  call void @llvm.lifetime.start.p0(i64 8, ptr %7) #3
  %13 = getelementptr inbounds nuw %class.ArgParse, ptr %12, i32 0, i32 5
  %14 = call ptr @_ZNSt6vectorIP9ArgOptionSaIS1_EE5beginEv(ptr noundef nonnull align 8 dereferenceable(24) %13) #3
  %15 = getelementptr inbounds nuw %"class.__gnu_cxx::__normal_iterator.14", ptr %7, i32 0, i32 0
  store ptr %14, ptr %15, align 8
  call void @_ZN9__gnu_cxx17__normal_iteratorIPKP9ArgOptionSt6vectorIS2_SaIS2_EEEC2IPS2_vEERKNS0_IT_S7_EE(ptr noundef nonnull align 8 dereferenceable(8) %6, ptr noundef nonnull align 8 dereferenceable(8) %7) #3
  call void @llvm.lifetime.end.p0(i64 8, ptr %7) #3
  br label %16

16:                                               ; preds = %106, %2
  call void @llvm.lifetime.start.p0(i64 8, ptr %8) #3
  %17 = getelementptr inbounds nuw %class.ArgParse, ptr %12, i32 0, i32 5
  %18 = call ptr @_ZNSt6vectorIP9ArgOptionSaIS1_EE3endEv(ptr noundef nonnull align 8 dereferenceable(24) %17) #3
  %19 = getelementptr inbounds nuw %"class.__gnu_cxx::__normal_iterator.14", ptr %8, i32 0, i32 0
  store ptr %18, ptr %19, align 8
  %20 = call noundef zeroext i1 @_ZN9__gnu_cxxneIPKP9ArgOptionPS2_St6vectorIS2_SaIS2_EEEEbRKNS_17__normal_iteratorIT_T1_EERKNS9_IT0_SB_EE(ptr noundef nonnull align 8 dereferenceable(8) %6, ptr noundef nonnull align 8 dereferenceable(8) %8) #3
  call void @llvm.lifetime.end.p0(i64 8, ptr %8) #3
  br i1 %20, label %22, label %21

21:                                               ; preds = %16
  store i32 2, ptr %9, align 4
  br label %109

22:                                               ; preds = %16
  call void @llvm.lifetime.start.p0(i64 8, ptr %10) #3
  %23 = call noundef nonnull align 8 dereferenceable(8) ptr @_ZNK9__gnu_cxx17__normal_iteratorIPKP9ArgOptionSt6vectorIS2_SaIS2_EEEdeEv(ptr noundef nonnull align 8 dereferenceable(8) %6) #3
  %24 = load ptr, ptr %23, align 8, !tbaa !4
  %25 = call noundef nonnull align 8 dereferenceable(32) ptr @_ZNK9ArgOption4nameB5cxx11Ev(ptr noundef nonnull align 8 dereferenceable(200) %24)
  %26 = call noundef ptr @_ZNKSt7__cxx1112basic_stringIcSt11char_traitsIcESaIcEE5c_strEv(ptr noundef nonnull align 8 dereferenceable(32) %25) #3
  store ptr %26, ptr %10, align 8, !tbaa !9
  %27 = load ptr, ptr %5, align 8, !tbaa !9
  %28 = load ptr, ptr %10, align 8, !tbaa !9
  %29 = call i32 @strcmp(ptr noundef %27, ptr noundef %28) #22
  %30 = icmp ne i32 %29, 0
  br i1 %30, label %34, label %31

31:                                               ; preds = %22
  %32 = call noundef nonnull align 8 dereferenceable(8) ptr @_ZNK9__gnu_cxx17__normal_iteratorIPKP9ArgOptionSt6vectorIS2_SaIS2_EEEdeEv(ptr noundef nonnull align 8 dereferenceable(8) %6) #3
  %33 = load ptr, ptr %32, align 8, !tbaa !4
  store ptr %33, ptr %3, align 8
  store i32 1, ptr %9, align 4
  br label %103

34:                                               ; preds = %22
  %35 = load ptr, ptr %5, align 8, !tbaa !9
  %36 = getelementptr inbounds i8, ptr %35, i64 0
  %37 = load i8, ptr %36, align 1, !tbaa !38
  %38 = sext i8 %37 to i32
  %39 = icmp eq i32 %38, 45
  br i1 %39, label %40, label %68

40:                                               ; preds = %34
  %41 = load ptr, ptr %5, align 8, !tbaa !9
  %42 = getelementptr inbounds i8, ptr %41, i64 1
  %43 = load i8, ptr %42, align 1, !tbaa !38
  %44 = sext i8 %43 to i32
  %45 = icmp eq i32 %44, 45
  br i1 %45, label %46, label %68

46:                                               ; preds = %40
  %47 = load ptr, ptr %10, align 8, !tbaa !9
  %48 = getelementptr inbounds i8, ptr %47, i64 0
  %49 = load i8, ptr %48, align 1, !tbaa !38
  %50 = sext i8 %49 to i32
  %51 = icmp eq i32 %50, 45
  br i1 %51, label %52, label %68

52:                                               ; preds = %46
  %53 = load ptr, ptr %10, align 8, !tbaa !9
  %54 = getelementptr inbounds i8, ptr %53, i64 1
  %55 = load i8, ptr %54, align 1, !tbaa !38
  %56 = sext i8 %55 to i32
  %57 = icmp ne i32 %56, 45
  br i1 %57, label %58, label %68

58:                                               ; preds = %52
  %59 = load ptr, ptr %5, align 8, !tbaa !9
  %60 = getelementptr inbounds i8, ptr %59, i64 1
  %61 = load ptr, ptr %10, align 8, !tbaa !9
  %62 = call i32 @strcmp(ptr noundef %60, ptr noundef %61) #22
  %63 = icmp ne i32 %62, 0
  br i1 %63, label %67, label %64

64:                                               ; preds = %58
  %65 = call noundef nonnull align 8 dereferenceable(8) ptr @_ZNK9__gnu_cxx17__normal_iteratorIPKP9ArgOptionSt6vectorIS2_SaIS2_EEEdeEv(ptr noundef nonnull align 8 dereferenceable(8) %6) #3
  %66 = load ptr, ptr %65, align 8, !tbaa !4
  store ptr %66, ptr %3, align 8
  store i32 1, ptr %9, align 4
  br label %103

67:                                               ; preds = %58
  br label %68

68:                                               ; preds = %67, %52, %46, %40, %34
  %69 = load ptr, ptr %5, align 8, !tbaa !9
  %70 = getelementptr inbounds i8, ptr %69, i64 0
  %71 = load i8, ptr %70, align 1, !tbaa !38
  %72 = sext i8 %71 to i32
  %73 = icmp eq i32 %72, 45
  br i1 %73, label %74, label %102

74:                                               ; preds = %68
  %75 = load ptr, ptr %5, align 8, !tbaa !9
  %76 = getelementptr inbounds i8, ptr %75, i64 1
  %77 = load i8, ptr %76, align 1, !tbaa !38
  %78 = sext i8 %77 to i32
  %79 = icmp ne i32 %78, 45
  br i1 %79, label %80, label %102

80:                                               ; preds = %74
  %81 = load ptr, ptr %10, align 8, !tbaa !9
  %82 = getelementptr inbounds i8, ptr %81, i64 0
  %83 = load i8, ptr %82, align 1, !tbaa !38
  %84 = sext i8 %83 to i32
  %85 = icmp eq i32 %84, 45
  br i1 %85, label %86, label %102

86:                                               ; preds = %80
  %87 = load ptr, ptr %10, align 8, !tbaa !9
  %88 = getelementptr inbounds i8, ptr %87, i64 1
  %89 = load i8, ptr %88, align 1, !tbaa !38
  %90 = sext i8 %89 to i32
  %91 = icmp eq i32 %90, 45
  br i1 %91, label %92, label %102

92:                                               ; preds = %86
  %93 = load ptr, ptr %5, align 8, !tbaa !9
  %94 = load ptr, ptr %10, align 8, !tbaa !9
  %95 = getelementptr inbounds i8, ptr %94, i64 1
  %96 = call i32 @strcmp(ptr noundef %93, ptr noundef %95) #22
  %97 = icmp ne i32 %96, 0
  br i1 %97, label %101, label %98

98:                                               ; preds = %92
  %99 = call noundef nonnull align 8 dereferenceable(8) ptr @_ZNK9__gnu_cxx17__normal_iteratorIPKP9ArgOptionSt6vectorIS2_SaIS2_EEEdeEv(ptr noundef nonnull align 8 dereferenceable(8) %6) #3
  %100 = load ptr, ptr %99, align 8, !tbaa !4
  store ptr %100, ptr %3, align 8
  store i32 1, ptr %9, align 4
  br label %103

101:                                              ; preds = %92
  br label %102

102:                                              ; preds = %101, %86, %80, %74, %68
  store i32 0, ptr %9, align 4
  br label %103

103:                                              ; preds = %102, %98, %64, %31
  call void @llvm.lifetime.end.p0(i64 8, ptr %10) #3
  %104 = load i32, ptr %9, align 4
  switch i32 %104, label %109 [
    i32 0, label %105
  ]

105:                                              ; preds = %103
  br label %106

106:                                              ; preds = %105
  %107 = call ptr @_ZN9__gnu_cxx17__normal_iteratorIPKP9ArgOptionSt6vectorIS2_SaIS2_EEEppEi(ptr noundef nonnull align 8 dereferenceable(8) %6, i32 noundef 0) #3
  %108 = getelementptr inbounds nuw %"class.__gnu_cxx::__normal_iterator.13", ptr %11, i32 0, i32 0
  store ptr %107, ptr %108, align 8
  br label %16, !llvm.loop !87

109:                                              ; preds = %103, %21
  call void @llvm.lifetime.end.p0(i64 8, ptr %6) #3
  %110 = load i32, ptr %9, align 4
  switch i32 %110, label %114 [
    i32 2, label %111
    i32 1, label %112
  ]

111:                                              ; preds = %109
  store ptr null, ptr %3, align 8
  br label %112

112:                                              ; preds = %111, %109
  %113 = load ptr, ptr %3, align 8
  ret ptr %113

114:                                              ; preds = %109
  unreachable
}

; Function Attrs: mustprogress uwtable
define hidden noundef i32 @_ZN8ArgParse5foundEPKc(ptr noundef nonnull align 8 dereferenceable(112) %0, ptr noundef %1) #4 align 2 {
  %3 = alloca i32, align 4
  %4 = alloca ptr, align 8
  %5 = alloca ptr, align 8
  %6 = alloca ptr, align 8
  %7 = alloca i32, align 4
  store ptr %0, ptr %4, align 8, !tbaa !69
  store ptr %1, ptr %5, align 8, !tbaa !9
  %8 = load ptr, ptr %4, align 8
  call void @llvm.lifetime.start.p0(i64 8, ptr %6) #3
  %9 = load ptr, ptr %5, align 8, !tbaa !9
  %10 = call noundef ptr @_ZN8ArgParse11find_optionEPKc(ptr noundef nonnull align 8 dereferenceable(112) %8, ptr noundef %9)
  store ptr %10, ptr %6, align 8, !tbaa !4
  %11 = load ptr, ptr %6, align 8, !tbaa !4
  %12 = icmp eq ptr %11, null
  br i1 %12, label %13, label %14

13:                                               ; preds = %2
  store i32 0, ptr %3, align 4
  store i32 1, ptr %7, align 4
  br label %17

14:                                               ; preds = %2
  %15 = load ptr, ptr %6, align 8, !tbaa !4
  %16 = call noundef i32 @_ZNK9ArgOption12parsed_countEv(ptr noundef nonnull align 8 dereferenceable(200) %15)
  store i32 %16, ptr %3, align 4
  store i32 1, ptr %7, align 4
  br label %17

17:                                               ; preds = %14, %13
  call void @llvm.lifetime.end.p0(i64 8, ptr %6) #3
  %18 = load i32, ptr %3, align 4
  ret i32 %18
}