; Function Attrs: mustprogress nofree nounwind willreturn memory(read, inaccessiblemem: none) uwtable
define hidden noundef i32 @_ZN8ArgParse5foundEPKc(ptr noundef nonnull readonly align 8 captures(none) dereferenceable(112) %0, ptr noundef readonly captures(none) %1) local_unnamed_addr #12 align 2 personality ptr @__gxx_personality_v0 {
  %3 = getelementptr inbounds nuw i8, ptr %0, i64 88
  %4 = load ptr, ptr %3, align 8, !tbaa !69
  %5 = getelementptr inbounds nuw i8, ptr %0, i64 96
  %6 = load ptr, ptr %5, align 8, !tbaa !69
  %.not3536.i = icmp eq ptr %4, %6
  br i1 %.not3536.i, label %_ZN8ArgParse11find_optionEPKc.exit, label %.lr.ph.i

.lr.ph.i:                                         ; preds = %2
  %7 = getelementptr inbounds nuw i8, ptr %1, i64 1
  br label %8

8:                                                ; preds = %.thread.i, %.lr.ph.i
  %.sroa.024.037.i = phi ptr [ %4, %.lr.ph.i ], [ %34, %.thread.i ]
  %9 = load ptr, ptr %.sroa.024.037.i, align 8, !tbaa !65
  %10 = getelementptr inbounds nuw i8, ptr %9, i64 32
  %11 = load ptr, ptr %10, align 8, !tbaa !12
  %12 = tail call i32 @strcmp(ptr noundef nonnull readonly dereferenceable(1) %1, ptr noundef nonnull dereferenceable(1) %11) #26
  %.not.i = icmp eq i32 %12, 0
  br i1 %.not.i, label %35, label %13

13:                                               ; preds = %8
  %14 = load i8, ptr %1, align 1, !tbaa !14
  %15 = icmp eq i8 %14, 45
  br i1 %15, label %16, label %.thread.i

16:                                               ; preds = %13
  %17 = load i8, ptr %7, align 1, !tbaa !14
  %18 = icmp eq i8 %17, 45
  %19 = load i8, ptr %11, align 1, !tbaa !14
  %20 = icmp eq i8 %19, 45
  br i1 %18, label %21, label %27

21:                                               ; preds = %16
  br i1 %20, label %22, label %.thread.i

22:                                               ; preds = %21
  %23 = getelementptr inbounds nuw i8, ptr %11, i64 1
  %24 = load i8, ptr %23, align 1, !tbaa !14
  %.not19.i = icmp eq i8 %24, 45
  br i1 %.not19.i, label %.thread.i, label %25

25:                                               ; preds = %22
  %26 = tail call i32 @strcmp(ptr noundef nonnull readonly dereferenceable(1) %7, ptr noundef nonnull dereferenceable(1) %11) #26
  %.not20.i = icmp eq i32 %26, 0
  br i1 %.not20.i, label %35, label %.thread.i

27:                                               ; preds = %16
  br i1 %20, label %28, label %.thread.i

28:                                               ; preds = %27
  %29 = getelementptr inbounds nuw i8, ptr %11, i64 1
  %30 = load i8, ptr %29, align 1, !tbaa !14
  %31 = icmp eq i8 %30, 45
  br i1 %31, label %32, label %.thread.i

32:                                               ; preds = %28
  %33 = tail call i32 @strcmp(ptr noundef nonnull readonly dereferenceable(1) %1, ptr noundef nonnull dereferenceable(1) %29) #26
  %.not22.i = icmp eq i32 %33, 0
  br i1 %.not22.i, label %35, label %.thread.i

.thread.i:                                        ; preds = %32, %28, %27, %25, %22, %21, %13
  %34 = getelementptr inbounds nuw i8, ptr %.sroa.024.037.i, i64 8
  %.not35.i = icmp eq ptr %34, %6
  br i1 %.not35.i, label %_ZN8ArgParse11find_optionEPKc.exit, label %8, !llvm.loop !70

35:                                               ; preds = %32, %8, %25
  %36 = getelementptr inbounds nuw i8, ptr %9, i64 168
  %37 = load i32, ptr %36, align 8, !tbaa !71
  br label %_ZN8ArgParse11find_optionEPKc.exit

_ZN8ArgParse11find_optionEPKc.exit:               ; preds = %.thread.i, %2, %35
  %.0 = phi i32 [ %37, %35 ], [ 0, %2 ], [ 0, %.thread.i ]
  ret i32 %.0
}